target datalayout = "e-m:e-p270:32:32-p271:32:32-p272:64:64-i64:64-i128:128-f80:128-n8:16:32:64-S128"
target triple = "x86_64-pc-linux-gnu"

%struct.AVFilterContext = type { ptr, ptr, ptr, ptr, ptr, i32, ptr, ptr, i32, ptr, ptr, i32, i32, ptr, ptr, ptr, ptr, i32, ptr, i32, i32 }
%struct.BLKContext = type { ptr, i32, i32, i32, i32, i32, i32, double, i64, ptr }
%struct.AVFilterLink = type { ptr, ptr, ptr, ptr, i32, i32, i32, i32, %struct.AVRational, i32, i32, i32, %struct.AVChannelLayout, %struct.AVRational, ptr, i32, %struct.AVFilterFormatsConfig, %struct.AVFilterFormatsConfig }
%struct.AVChannelLayout = type { i32, i32, %union.anon.1, ptr }
%union.anon.1 = type { i64 }
%struct.AVRational = type { i32, i32 }
%struct.AVFilterFormatsConfig = type { ptr, ptr, ptr, ptr, ptr }
%struct.AVPixFmtDescriptor = type { ptr, i8, i8, i8, i64, [4 x %struct.AVComponentDescriptor], ptr }
%struct.AVComponentDescriptor = type { i32, i32, i32, i32, i32 }

; Function Attrs: nounwind uwtable
define internal i32 @blockdetect_config_input(ptr noundef %0) #1 {
  %2 = alloca i32, align 4
  %3 = alloca ptr, align 8
  %4 = alloca ptr, align 8
  %5 = alloca ptr, align 8
  %6 = alloca i32, align 4
  %7 = alloca ptr, align 8
  %8 = alloca i32, align 4
  store ptr %0, ptr %3, align 8, !tbaa !30
  call void @llvm.lifetime.start.p0(i64 8, ptr %4) #8
  %9 = load ptr, ptr %3, align 8, !tbaa !30
  %10 = getelementptr inbounds nuw %struct.AVFilterLink, ptr %9, i32 0, i32 2
  %11 = load ptr, ptr %10, align 8, !tbaa !36
  store ptr %11, ptr %4, align 8, !tbaa !4
  call void @llvm.lifetime.start.p0(i64 8, ptr %5) #8
  %12 = load ptr, ptr %4, align 8, !tbaa !4
  %13 = getelementptr inbounds nuw %struct.AVFilterContext, ptr %12, i32 0, i32 9
  %14 = load ptr, ptr %13, align 8, !tbaa !9
  store ptr %14, ptr %5, align 8, !tbaa !22
  call void @llvm.lifetime.start.p0(i64 4, ptr %6) #8
  %15 = load ptr, ptr %3, align 8, !tbaa !30
  %16 = getelementptr inbounds nuw %struct.AVFilterLink, ptr %15, i32 0, i32 6
  %17 = load i32, ptr %16, align 8, !tbaa !45
  %18 = load ptr, ptr %3, align 8, !tbaa !30
  %19 = getelementptr inbounds nuw %struct.AVFilterLink, ptr %18, i32 0, i32 7
  %20 = load i32, ptr %19, align 4, !tbaa !47
  %21 = mul nsw i32 %17, %20
  store i32 %21, ptr %6, align 4, !tbaa !46
  call void @llvm.lifetime.start.p0(i64 8, ptr %7) #8
  %22 = load ptr, ptr %3, align 8, !tbaa !30
  %23 = getelementptr inbounds nuw %struct.AVFilterLink, ptr %22, i32 0, i32 5
  %24 = load i32, ptr %23, align 4, !tbaa !63
  %25 = call ptr @av_pix_fmt_desc_get(i32 noundef %24)
  store ptr %25, ptr %7, align 8, !tbaa !64
  %26 = load ptr, ptr %7, align 8, !tbaa !64
  %27 = getelementptr inbounds nuw %struct.AVPixFmtDescriptor, ptr %26, i32 0, i32 2
  %28 = load i8, ptr %27, align 1, !tbaa !66
  %29 = zext i8 %28 to i32
  %30 = load ptr, ptr %5, align 8, !tbaa !22
  %31 = getelementptr inbounds nuw %struct.BLKContext, ptr %30, i32 0, i32 1
  store i32 %29, ptr %31, align 8, !tbaa !55
  %32 = load ptr, ptr %7, align 8, !tbaa !64
  %33 = getelementptr inbounds nuw %struct.AVPixFmtDescriptor, ptr %32, i32 0, i32 3
  %34 = load i8, ptr %33, align 2, !tbaa !68
  %35 = zext i8 %34 to i32
  %36 = load ptr, ptr %5, align 8, !tbaa !22
  %37 = getelementptr inbounds nuw %struct.BLKContext, ptr %36, i32 0, i32 2
  store i32 %35, ptr %37, align 4, !tbaa !56
  %38 = load ptr, ptr %3, align 8, !tbaa !30
  %39 = getelementptr inbounds nuw %struct.AVFilterLink, ptr %38, i32 0, i32 5
  %40 = load i32, ptr %39, align 4, !tbaa !63
  %41 = call i32 @av_pix_fmt_count_planes(i32 noundef %40)
  %42 = load ptr, ptr %5, align 8, !tbaa !22
  %43 = getelementptr inbounds nuw %struct.BLKContext, ptr %42, i32 0, i32 3
  store i32 %41, ptr %43, align 8, !tbaa !54
  %44 = load i32, ptr %6, align 4, !tbaa !46
  %45 = sext i32 %44 to i64
  %46 = call noalias ptr @av_calloc(i64 noundef %45, i64 noundef 4)
  %47 = load ptr, ptr %5, align 8, !tbaa !22
  %48 = getelementptr inbounds nuw %struct.BLKContext, ptr %47, i32 0, i32 9
  store ptr %46, ptr %48, align 8, !tbaa !48
  %49 = load ptr, ptr %5, align 8, !tbaa !22
  %50 = getelementptr inbounds nuw %struct.BLKContext, ptr %49, i32 0, i32 9
  %51 = load ptr, ptr %50, align 8, !tbaa !48
  %52 = icmp ne ptr %51, null
  br i1 %52, label %54, label %53

53:                                               ; preds = %1
  store i32 -12, ptr %2, align 4
  store i32 1, ptr %8, align 4
  br label %55

54:                                               ; preds = %1
  store i32 0, ptr %2, align 4
  store i32 1, ptr %8, align 4
  br label %55

55:                                               ; preds = %54, %53
  call void @llvm.lifetime.end.p0(i64 8, ptr %7) #8
  call void @llvm.lifetime.end.p0(i64 4, ptr %6) #8
  call void @llvm.lifetime.end.p0(i64 8, ptr %5) #8
  call void @llvm.lifetime.end.p0(i64 8, ptr %4) #8
  %56 = load i32, ptr %2, align 4
  ret i32 %56
}