; Function Attrs: nounwind uwtable
define internal range(i32 -12, 1) i32 @blockdetect_config_input(ptr noundef readonly captures(none) %0) #1 {
  %2 = getelementptr inbounds nuw i8, ptr %0, i64 16
  %3 = load ptr, ptr %2, align 8, !tbaa !26
  %4 = getelementptr inbounds nuw i8, ptr %3, i64 72
  %5 = load ptr, ptr %4, align 8, !tbaa !4
  %6 = getelementptr inbounds nuw i8, ptr %0, i64 40
  %7 = load i32, ptr %6, align 8, !tbaa !41
  %8 = getelementptr inbounds nuw i8, ptr %0, i64 44
  %9 = load i32, ptr %8, align 4, !tbaa !40
  %10 = mul nsw i32 %9, %7
  %11 = getelementptr inbounds nuw i8, ptr %0, i64 36
  %12 = load i32, ptr %11, align 4, !tbaa !64
  %13 = tail call ptr @av_pix_fmt_desc_get(i32 noundef %12) #6
  %14 = getelementptr inbounds nuw i8, ptr %13, i64 9
  %15 = load i8, ptr %14, align 1, !tbaa !65
  %16 = zext i8 %15 to i32
  %17 = getelementptr inbounds nuw i8, ptr %5, i64 8
  store i32 %16, ptr %17, align 8, !tbaa !45
  %18 = getelementptr inbounds nuw i8, ptr %13, i64 10
  %19 = load i8, ptr %18, align 2, !tbaa !67
  %20 = zext i8 %19 to i32
  %21 = getelementptr inbounds nuw i8, ptr %5, i64 12
  store i32 %20, ptr %21, align 4, !tbaa !46
  %22 = load i32, ptr %11, align 4, !tbaa !64
  %23 = tail call i32 @av_pix_fmt_count_planes(i32 noundef %22) #6
  %24 = getelementptr inbounds nuw i8, ptr %5, i64 16
  store i32 %23, ptr %24, align 8, !tbaa !39
  %25 = sext i32 %10 to i64
  %26 = tail call noalias ptr @av_calloc(i64 noundef %25, i64 noundef 4) #6
  %27 = getelementptr inbounds nuw i8, ptr %5, i64 48
  store ptr %26, ptr %27, align 8, !tbaa !38
  %.not = icmp eq ptr %26, null
  %. = select i1 %.not, i32 -12, i32 0
  ret i32 %.
}